(dp0
S'/home/stain/src/ro-catalogue/v0.1/concept-profile-matching-golden-exemplar/.ro/Get_Concept_IDs_component.wfdesc.ttl'
p1
(isync.SyncRegistry
SyncRegistry
p2
(dp3
S'checksum'
p4
S'585056bfb2a028188b1b62ab44ad1058'
p5
sS'lastSyncTime'
p6
F1343729134.978359
sS'filename'
p7
g1
sbsS'/home/stain/src/ro-catalogue/v0.1/concept-profile-matching-golden-exemplar/.ro/Ann-20120731-0001-DatabaseID_to_ConceptID_component.t2flow.rdf'
p8
(isync.SyncRegistry
SyncRegistry
p9
(dp10
g4
S'e6f6545b9a4b969b07c421010ffd732a'
p11
sg6
F1343729134.978359
sg7
g8
sbsS'/home/stain/src/ro-catalogue/v0.1/concept-profile-matching-golden-exemplar/.ro/Ann-20120731-0001-main_nested_workflow.t2flow.rdf'
p12
(isync.SyncRegistry
SyncRegistry
p13
(dp14
g4
S'e50e3e1ca3f6a4ca5b5ba1167603f504'
p15
sg6
F1343729134.978359
sg7
g12
sbsS'/home/stain/src/ro-catalogue/v0.1/concept-profile-matching-golden-exemplar/.ro/List_Predefined_Concept_Sets.wfdesc.ttl'
p16
(isync.SyncRegistry
SyncRegistry
p17
(dp18
g4
S'3d7369b603ee8c22a421949a954500b2'
p19
sg6
F1343729134.978359
sg7
g16
sbsS'/home/stain/src/ro-catalogue/v0.1/concept-profile-matching-golden-exemplar/.ro/Ann-20120731-0001-Match_concept_profiles_component.t2flow.rdf'
p20
(isync.SyncRegistry
SyncRegistry
p21
(dp22
g4
S'05ee07b27c538e595444425c0549c749'
p23
sg6
F1343729134.978359
sg7
g20
sbsS'/home/stain/src/ro-catalogue/v0.1/concept-profile-matching-golden-exemplar/.ro/DatabaseID_to_ConceptID_component.wfdesc.ttl'
p24
(isync.SyncRegistry
SyncRegistry
p25
(dp26
g4
S'1c583450cdf6d66267b9180a09c72102'
p27
sg6
F1343729134.978359
sg7
g24
sbsS'/home/stain/src/ro-catalogue/v0.1/concept-profile-matching-golden-exemplar/.ro/Ann-20120731-0001-README.txt.rdf'
p28
(isync.SyncRegistry
SyncRegistry
p29
(dp30
g4
S'704c3f91242d823a5ba9f3342696f4a0'
p31
sg6
F1343729134.978359
sg7
g28
sbsS'/home/stain/src/ro-catalogue/v0.1/concept-profile-matching-golden-exemplar/Workflow-runs/List_Concept_sets_run1.rdf'
p32
(isync.SyncRegistry
SyncRegistry
p33
(dp34
g4
S'507d3633e6560f29564b424fc2ab49c8'
p35
sg6
F1343729134.978359
sg7
g32
sbsS'/home/stain/src/ro-catalogue/v0.1/concept-profile-matching-golden-exemplar/Datasets/List_Concept_Sets_output.xls'
p36
(isync.SyncRegistry
SyncRegistry
p37
(dp38
g4
S'eca1b74297d669e79939a3b42d1a67d4'
p39
sg6
F1343729134.978359
sg7
g36
sbsS'/home/stain/src/ro-catalogue/v0.1/concept-profile-matching-golden-exemplar/.ro/main_nested_workflow.wfdesc.ttl'
p40
(isync.SyncRegistry
SyncRegistry
p41
(dp42
g4
S'9b6c7af67f7623c6c4234a278d7e59a7'
p43
sg6
F1343729134.978359
sg7
g40
sbsS'/home/stain/src/ro-catalogue/v0.1/concept-profile-matching-golden-exemplar/Documents/README.txt'
p44
(isync.SyncRegistry
SyncRegistry
p45
(dp46
g4
S'2eb93eb94fc5082ad7abe6ecbd1de8b0'
p47
sg6
F1343729134.978359
sg7
g44
sbsS'/home/stain/src/ro-catalogue/v0.1/concept-profile-matching-golden-exemplar/Workflows/main_nested_workflow.t2flow'
p48
(isync.SyncRegistry
SyncRegistry
p49
(dp50
g4
S'7bf9986e0718d4e7c4125308d59b3cfc'
p51
sg6
F1343729134.978359
sg7
g48
sbsS'/home/stain/src/ro-catalogue/v0.1/concept-profile-matching-golden-exemplar/.ro/Ann-20120731-0001-List_Predefined_Concept_Sets.t2flow.rdf'
p52
(isync.SyncRegistry
SyncRegistry
p53
(dp54
g4
S'07dfdaa896862c1efef779e397537603'
p55
sg6
F1343729134.978359
sg7
g52
sbsS'/home/stain/src/ro-catalogue/v0.1/concept-profile-matching-golden-exemplar/.ro/Ann-20120731-0001-Find_co_occurring_documents_component.t2flow.rdf'
p56
(isync.SyncRegistry
SyncRegistry
p57
(dp58
g4
S'34b17a2fac093083bad46ca24635f4f0'
p59
sg6
F1343729134.978359
sg7
g56
sbsS'/home/stain/src/ro-catalogue/v0.1/concept-profile-matching-golden-exemplar/.ro/Match_concept_profiles_component.wfdesc.ttl'
p60
(isync.SyncRegistry
SyncRegistry
p61
(dp62
g4
S'd0f0b0602be4ba9d1bc2f52e121a745a'
p63
sg6
F1343729134.978359
sg7
g60
sbsS'/home/stain/src/ro-catalogue/v0.1/concept-profile-matching-golden-exemplar/Workflows/DatabaseID_to_ConceptID_component.t2flow'
p64
(isync.SyncRegistry
SyncRegistry
p65
(dp66
g4
S'd1c9b91dba2bb2bd7b0197e931f220c8'
p67
sg6
F1343729134.978359
sg7
g64
sbsS'/home/stain/src/ro-catalogue/v0.1/concept-profile-matching-golden-exemplar/Workflows/List_Predefined_Concept_Sets.t2flow'
p68
(isync.SyncRegistry
SyncRegistry
p69
(dp70
g4
S'f11fdace5042941f696a7b47aa27b86e'
p71
sg6
F1343729134.978359
sg7
g68
sbsS'/home/stain/src/ro-catalogue/v0.1/concept-profile-matching-golden-exemplar/Workflows/Find_Supporting_Documents_component.t2flow'
p72
(isync.SyncRegistry
SyncRegistry
p73
(dp74
g4
S'47eef7592d9ed283c1798f879b7d2bbf'
p75
sg6
F1343729134.978359
sg7
g72
sbsS'/home/stain/src/ro-catalogue/v0.1/concept-profile-matching-golden-exemplar/Workflows/Get_concept_information_component.t2flow'
p76
(isync.SyncRegistry
SyncRegistry
p77
(dp78
g4
S'd9b462b48b87e29e829c88e6a526d3c2'
p79
sg6
F1343729134.978359
sg7
g76
sbsS'/home/stain/src/ro-catalogue/v0.1/concept-profile-matching-golden-exemplar/annotation-skeleton.rdf'
p80
(isync.SyncRegistry
SyncRegistry
p81
(dp82
g4
S'32d417af533282217e8930a214c5ce62'
p83
sg6
F1343729134.978359
sg7
g80
sbsS'/home/stain/src/ro-catalogue/v0.1/concept-profile-matching-golden-exemplar/Documents/HOWTO.txt'
p84
(isync.SyncRegistry
SyncRegistry
p85
(dp86
g4
S'd15ee82c7ad8dcf0b9881305ec600bb5'
p87
sg6
F1343729134.978359
sg7
g84
sbsS'/home/stain/src/ro-catalogue/v0.1/concept-profile-matching-golden-exemplar/Workflows/Match_concept_profiles_component.t2flow'
p88
(isync.SyncRegistry
SyncRegistry
p89
(dp90
g4
S'e1910de88963c620f9bfc91c9f0ba47f'
p91
sg6
F1343729134.978359
sg7
g88
sbsS'/home/stain/src/ro-catalogue/v0.1/concept-profile-matching-golden-exemplar/Datasets/top_snps_to_annotate_input.txt'
p92
(isync.SyncRegistry
SyncRegistry
p93
(dp94
g4
S'06b88f2d61f803dd5ea3c9c265a26c5d'
p95
sg6
F1343729134.978359
sg7
g92
sbsS'/home/stain/src/ro-catalogue/v0.1/concept-profile-matching-golden-exemplar/.ro/SNP_ID2EntrezGene_ID_component.wfdesc.ttl'
p96
(isync.SyncRegistry
SyncRegistry
p97
(dp98
g4
S'977d85daa947c826b31ab32d1f4f64d9'
p99
sg6
F1343729134.978359
sg7
g96
sbsS'/home/stain/src/ro-catalogue/v0.1/concept-profile-matching-golden-exemplar/.ro/Find_Supporting_Documents_component.wfdesc.ttl'
p100
(isync.SyncRegistry
SyncRegistry
p101
(dp102
g4
S'2bd67d3152171fdb0f01b5ff4a0155b1'
p103
sg6
F1343729134.978359
sg7
g100
sbsS'/home/stain/src/ro-catalogue/v0.1/concept-profile-matching-golden-exemplar/.ro/manifest.rdf'
p104
(isync.SyncRegistry
SyncRegistry
p105
(dp106
g4
S'26b4d1f3a3ebc4b352790ee7851ca9cb'
p107
sg6
F1343729134.978359
sg7
g104
sbsS'/home/stain/src/ro-catalogue/v0.1/concept-profile-matching-golden-exemplar/.ro/Explain_concept_scores_component.wfdesc.ttl'
p108
(isync.SyncRegistry
SyncRegistry
p109
(dp110
g4
S'd09bcd4c86952e0c4f98876d481847af'
p111
sg6
F1343729134.978359
sg7
g108
sbsS'/home/stain/src/ro-catalogue/v0.1/concept-profile-matching-golden-exemplar/.ro/Ann-20120731-0001-Find_Supporting_Documents_component.t2flow.rdf'
p112
(isync.SyncRegistry
SyncRegistry
p113
(dp114
g4
S'2f4c3cbe07cf2d4661969dc39e2d39a7'
p115
sg6
F1343729134.978359
sg7
g112
sbsS'/home/stain/src/ro-catalogue/v0.1/concept-profile-matching-golden-exemplar/.ro/SWA4LS_Workflow.wfdesc.ttl'
p116
(isync.SyncRegistry
SyncRegistry
p117
(dp118
g4
S'3ea131fc5e8ab5d2bad6ca42e245fbe0'
p119
sg6
F1343729134.978359
sg7
g116
sbsS'/home/stain/src/ro-catalogue/v0.1/concept-profile-matching-golden-exemplar/.ro/Ann-20120731-0001-SNP_ID2EntrezGene_ID_output.xls.rdf'
p120
(isync.SyncRegistry
SyncRegistry
p121
(dp122
g4
S'4cda9d5f7c70c1e1268b9e171b0edc59'
p123
sg6
F1343729134.978359
sg7
g120
sbsS'/home/stain/src/ro-catalogue/v0.1/concept-profile-matching-golden-exemplar/Workflows/SWA4LS_Workflow.t2flow'
p124
(isync.SyncRegistry
SyncRegistry
p125
(dp126
g4
S'0c99599e945d5738461dcb2ffccf81ff'
p127
sg6
F1343729134.978359
sg7
g124
sbsS'/home/stain/src/ro-catalogue/v0.1/concept-profile-matching-golden-exemplar/Workflows/Find_co_occurring_documents_component.t2flow'
p128
(isync.SyncRegistry
SyncRegistry
p129
(dp130
g4
S'89a0eb25afd095e68f629e22157d1ed0'
p131
sg6
F1343729134.978359
sg7
g128
sbsS'/home/stain/src/ro-catalogue/v0.1/concept-profile-matching-golden-exemplar/.ro/Get_concept_information_component.wfdesc.ttl'
p132
(isync.SyncRegistry
SyncRegistry
p133
(dp134
g4
S'dba037f1dc74790a756e22178ecc978a'
p135
sg6
F1343729134.978359
sg7
g132
sbsS'/home/stain/src/ro-catalogue/v0.1/concept-profile-matching-golden-exemplar/.ro/Ann-20120731-0001-HOWTO.txt.rdf'
p136
(isync.SyncRegistry
SyncRegistry
p137
(dp138
g4
S'ca8c5c893b24ffdc333b1d1cacc9be37'
p139
sg6
F1343729134.978359
sg7
g136
sbsS'/home/stain/src/ro-catalogue/v0.1/concept-profile-matching-golden-exemplar/.ro/Ann-20120731-0001-List_Concept_sets_run1.rdf.rdf'
p140
(isync.SyncRegistry
SyncRegistry
p141
(dp142
g4
S'7cac5a58ff21028d0baa5acfe195de95'
p143
sg6
F1343729134.978359
sg7
g140
sbsS'/home/stain/src/ro-catalogue/v0.1/concept-profile-matching-golden-exemplar/.ro/Ann-20120731-0001-Get_Concept_IDs_component.t2flow.rdf'
p144
(isync.SyncRegistry
SyncRegistry
p145
(dp146
g4
S'e5861c0cc9f60c67ec604d7971ff8c30'
p147
sg6
F1343729134.978359
sg7
g144
sbsS'/home/stain/src/ro-catalogue/v0.1/concept-profile-matching-golden-exemplar/.ro/Ann-20120731-0001-Explain_concept_scores_component.t2flow.rdf'
p148
(isync.SyncRegistry
SyncRegistry
p149
(dp150
g4
S'87060c97a2dd0a2b6b10d6105e9b1cb3'
p151
sg6
F1343729134.978359
sg7
g148
sbsS'/home/stain/src/ro-catalogue/v0.1/concept-profile-matching-golden-exemplar/Workflows/SNP_ID2EntrezGene_ID_component.t2flow'
p152
(isync.SyncRegistry
SyncRegistry
p153
(dp154
g4
S'bb370b73f0ed1ce4205c15e6e12ca55d'
p155
sg6
F1343729134.978359
sg7
g152
sbsS'/home/stain/src/ro-catalogue/v0.1/concept-profile-matching-golden-exemplar/.ro/Ann-20120731-0001-Get_concept_information_component.t2flow.rdf'
p156
(isync.SyncRegistry
SyncRegistry
p157
(dp158
g4
S'97b266c0fbc4a2bd1642641d80d430cf'
p159
sg6
F1343729134.978359
sg7
g156
sbsS'/home/stain/src/ro-catalogue/v0.1/concept-profile-matching-golden-exemplar/.ro/Ann-20120731-0001-SNP_ID2EntrezGene_ID_component.t2flow.rdf'
p160
(isync.SyncRegistry
SyncRegistry
p161
(dp162
g4
S'b0cafd0477dd964dc790889e52fe4283'
p163
sg6
F1343729134.978359
sg7
g160
sbsS'/home/stain/src/ro-catalogue/v0.1/concept-profile-matching-golden-exemplar/Workflows/Explain_concept_scores_component.t2flow'
p164
(isync.SyncRegistry
SyncRegistry
p165
(dp166
g4
S'e66783759076418b7d73922d3cf99e36'
p167
sg6
F1343729134.978359
sg7
g164
sbsS'/home/stain/src/ro-catalogue/v0.1/concept-profile-matching-golden-exemplar/Workflows/Get_Concept_IDs_component.t2flow'
p168
(isync.SyncRegistry
SyncRegistry
p169
(dp170
g4
S'5f73f549217274bf2058230d75b702cb'
p171
sg6
F1343729134.978359
sg7
g168
sbsS'/home/stain/src/ro-catalogue/v0.1/concept-profile-matching-golden-exemplar/make.sh'
p172
(isync.SyncRegistry
SyncRegistry
p173
(dp174
g4
S'd067f6c9b8059d1594981250d80d2c31'
p175
sg6
F1343729134.978359
sg7
g172
sbsS'/home/stain/src/ro-catalogue/v0.1/concept-profile-matching-golden-exemplar/.ro/Ann-20120731-0001-top_snps_to_annotate_input.txt.rdf'
p176
(isync.SyncRegistry
SyncRegistry
p177
(dp178
g4
S'2d498529714e07c1b29368260373f181'
p179
sg6
F1343729134.978359
sg7
g176
sbsS'/home/stain/src/ro-catalogue/v0.1/concept-profile-matching-golden-exemplar/ro_annotation.rdf'
p180
(isync.SyncRegistry
SyncRegistry
p181
(dp182
g4
S'934aa7fb9c4de81ed1331d708a01c3ea'
p183
sg6
F1343729134.978359
sg7
g180
sbsS'/home/stain/src/ro-catalogue/v0.1/concept-profile-matching-golden-exemplar/.ro/Ann-20120731-0001-SWA4LS_Workflow.t2flow.rdf'
p184
(isync.SyncRegistry
SyncRegistry
p185
(dp186
g4
S'deaac25658b4711d96060a0ffc0e082f'
p187
sg6
F1343729134.978359
sg7
g184
sbsS'/home/stain/src/ro-catalogue/v0.1/concept-profile-matching-golden-exemplar/Datasets/SNP_ID2EntrezGene_ID_output.xls'
p188
(isync.SyncRegistry
SyncRegistry
p189
(dp190
g4
S'6f67abef03a7a1b45cfbaef6bdd27b6f'
p191
sg6
F1343729134.978359
sg7
g188
sbsS'/home/stain/src/ro-catalogue/v0.1/concept-profile-matching-golden-exemplar/.ro/Find_co_occurring_documents_component.wfdesc.ttl'
p192
(isync.SyncRegistry
SyncRegistry
p193
(dp194
g4
S'659631520ecfcfd5a7eadf6a45c23fb5'
p195
sg6
F1343729134.978359
sg7
g192
sbsS'/home/stain/src/ro-catalogue/v0.1/concept-profile-matching-golden-exemplar/.ro/Ann-20120731-0001-List_Concept_Sets_output.xls.rdf'
p196
(isync.SyncRegistry
SyncRegistry
p197
(dp198
g4
S'a0529d0aa8ce4ca8ad66da25bf394335'
p199
sg6
F1343729134.978359
sg7
g196
sbs.