(dp0
S'/home/kmhettne/Projects/ro-catalogue/v0.1/concept-profile-matching-golden-exemplar/Datasets/List_Concept_Sets_output.xls'
p1
(isync.SyncRegistry
SyncRegistry
p2
(dp3
S'checksum'
p4
S'eca1b74297d669e79939a3b42d1a67d4'
p5
sS'lastSyncTime'
p6
F1342788338.941685
sS'filename'
p7
g1
sbsS'/home/kmhettne/Projects/ro-catalogue/v0.1/concept-profile-matching-golden-exemplar/Documents/README.txt~'
p8
(isync.SyncRegistry
SyncRegistry
p9
(dp10
g4
S'e43a2b93476b4dc6546a441b1839e260'
p11
sg6
F1342788338.941685
sg7
g8
sbsS'/home/kmhettne/Projects/ro-catalogue/v0.1/concept-profile-matching-golden-exemplar/Documents/HOWTO.txt~'
p12
(isync.SyncRegistry
SyncRegistry
p13
(dp14
g4
S'aa7ead5c825fe6ec7192b034909e1843'
p15
sg6
F1342788338.941685
sg7
g12
sbsS'/home/kmhettne/Projects/ro-catalogue/v0.1/concept-profile-matching-golden-exemplar/Datasets/SNP_ID2EntrezGene_ID_output.xls'
p16
(isync.SyncRegistry
SyncRegistry
p17
(dp18
g4
S'6f67abef03a7a1b45cfbaef6bdd27b6f'
p19
sg6
F1342788338.941685
sg7
g16
sbsS'/home/kmhettne/Projects/ro-catalogue/v0.1/concept-profile-matching-golden-exemplar/ro_annotation.rdf'
p20
(isync.SyncRegistry
SyncRegistry
p21
(dp22
g4
S'934aa7fb9c4de81ed1331d708a01c3ea'
p23
sg6
F1342788338.941685
sg7
g20
sbsS'/home/kmhettne/Projects/ro-catalogue/v0.1/concept-profile-matching-golden-exemplar/Documents/HOWTO.txt'
p24
(isync.SyncRegistry
SyncRegistry
p25
(dp26
g4
S'd15ee82c7ad8dcf0b9881305ec600bb5'
p27
sg6
F1342788338.941685
sg7
g24
sbsS'/home/kmhettne/Projects/ro-catalogue/v0.1/concept-profile-matching-golden-exemplar/Workflows/Get_concept_information_component.t2flow'
p28
(isync.SyncRegistry
SyncRegistry
p29
(dp30
g4
S'd9b462b48b87e29e829c88e6a526d3c2'
p31
sg6
F1342788338.941685
sg7
g28
sbsS'/home/kmhettne/Projects/ro-catalogue/v0.1/concept-profile-matching-golden-exemplar/Workflow-runs/List_Concept_sets_run1.rdf'
p32
(isync.SyncRegistry
SyncRegistry
p33
(dp34
g4
S'507d3633e6560f29564b424fc2ab49c8'
p35
sg6
F1342788338.941685
sg7
g32
sbsS'/home/kmhettne/Projects/ro-catalogue/v0.1/concept-profile-matching-golden-exemplar/Workflows/Find_co_occurring_documents_component.t2flow'
p36
(isync.SyncRegistry
SyncRegistry
p37
(dp38
g4
S'89a0eb25afd095e68f629e22157d1ed0'
p39
sg6
F1342788338.941685
sg7
g36
sbsS'/home/kmhettne/Projects/ro-catalogue/v0.1/concept-profile-matching-golden-exemplar/Workflows/Explain_concept_scores_component.t2flow'
p40
(isync.SyncRegistry
SyncRegistry
p41
(dp42
g4
S'e66783759076418b7d73922d3cf99e36'
p43
sg6
F1342788338.941685
sg7
g40
sbsS'/home/kmhettne/Projects/ro-catalogue/v0.1/concept-profile-matching-golden-exemplar/Datasets/top_snps_to_annotate_input.txt'
p44
(isync.SyncRegistry
SyncRegistry
p45
(dp46
g4
S'06b88f2d61f803dd5ea3c9c265a26c5d'
p47
sg6
F1342788338.941685
sg7
g44
sbsS'/home/kmhettne/Projects/ro-catalogue/v0.1/concept-profile-matching-golden-exemplar/Documents/README.txt'
p48
(isync.SyncRegistry
SyncRegistry
p49
(dp50
g4
S'2eb93eb94fc5082ad7abe6ecbd1de8b0'
p51
sg6
F1342788338.941685
sg7
g48
sbsS'/home/kmhettne/Projects/ro-catalogue/v0.1/concept-profile-matching-golden-exemplar/annotation-skeleton.rdf'
p52
(isync.SyncRegistry
SyncRegistry
p53
(dp54
g4
S'32d417af533282217e8930a214c5ce62'
p55
sg6
F1342788338.941685
sg7
g52
sbsS'/home/kmhettne/Projects/ro-catalogue/v0.1/concept-profile-matching-golden-exemplar/Workflows/DatabaseID_to_ConceptID_component.t2flow'
p56
(isync.SyncRegistry
SyncRegistry
p57
(dp58
g4
S'd1c9b91dba2bb2bd7b0197e931f220c8'
p59
sg6
F1342788338.941685
sg7
g56
sbsS'/home/kmhettne/Projects/ro-catalogue/v0.1/concept-profile-matching-golden-exemplar/make.sh'
p60
(isync.SyncRegistry
SyncRegistry
p61
(dp62
g4
S'3b6157e70198b48bc5a9487e46dded9b'
p63
sg6
F1342788338.941685
sg7
g60
sbsS'/home/kmhettne/Projects/ro-catalogue/v0.1/concept-profile-matching-golden-exemplar/.ro/manifest.rdf'
p64
(isync.SyncRegistry
SyncRegistry
p65
(dp66
g4
S'9290893d5b9e9715a1bab4b11bdbf8bd'
p67
sg6
F1342788338.941685
sg7
g64
sbsS'/home/kmhettne/Projects/ro-catalogue/v0.1/concept-profile-matching-golden-exemplar/ro_annotation.rdf~'
p68
(isync.SyncRegistry
SyncRegistry
p69
(dp70
g4
S'9def2be49ec7fefb678930dafbf501b0'
p71
sg6
F1342788338.941685
sg7
g68
sbsS'/home/kmhettne/Projects/ro-catalogue/v0.1/concept-profile-matching-golden-exemplar/Workflows/main_nested_workflow.t2flow'
p72
(isync.SyncRegistry
SyncRegistry
p73
(dp74
g4
S'7bf9986e0718d4e7c4125308d59b3cfc'
p75
sg6
F1342788338.941685
sg7
g72
sbsS'/home/kmhettne/Projects/ro-catalogue/v0.1/concept-profile-matching-golden-exemplar/make.sh~'
p76
(isync.SyncRegistry
SyncRegistry
p77
(dp78
g4
S'9b4da3d683a953abe43797a61d987669'
p79
sg6
F1342788338.941685
sg7
g76
sbsS'/home/kmhettne/Projects/ro-catalogue/v0.1/concept-profile-matching-golden-exemplar/Workflows/SWA4LS_Workflow.t2flow'
p80
(isync.SyncRegistry
SyncRegistry
p81
(dp82
g4
S'0c99599e945d5738461dcb2ffccf81ff'
p83
sg6
F1342788338.941685
sg7
g80
sbsS'/home/kmhettne/Projects/ro-catalogue/v0.1/concept-profile-matching-golden-exemplar/Workflows/Match_concept_profiles_component.t2flow'
p84
(isync.SyncRegistry
SyncRegistry
p85
(dp86
g4
S'e1910de88963c620f9bfc91c9f0ba47f'
p87
sg6
F1342788338.941685
sg7
g84
sbsS'/home/kmhettne/Projects/ro-catalogue/v0.1/concept-profile-matching-golden-exemplar/Workflows/SNP_ID2EntrezGene_ID_component.t2flow'
p88
(isync.SyncRegistry
SyncRegistry
p89
(dp90
g4
S'bb370b73f0ed1ce4205c15e6e12ca55d'
p91
sg6
F1342788338.941685
sg7
g88
sbsS'/home/kmhettne/Projects/ro-catalogue/v0.1/concept-profile-matching-golden-exemplar/Workflows/Find_Supporting_Documents_component.t2flow'
p92
(isync.SyncRegistry
SyncRegistry
p93
(dp94
g4
S'47eef7592d9ed283c1798f879b7d2bbf'
p95
sg6
F1342788338.941685
sg7
g92
sbsS'/home/kmhettne/Projects/ro-catalogue/v0.1/concept-profile-matching-golden-exemplar/Workflows/Get_Concept_IDs_component.t2flow'
p96
(isync.SyncRegistry
SyncRegistry
p97
(dp98
g4
S'5f73f549217274bf2058230d75b702cb'
p99
sg6
F1342788338.941685
sg7
g96
sbsS'/home/kmhettne/Projects/ro-catalogue/v0.1/concept-profile-matching-golden-exemplar/Workflows/List_Predefined_Concept_Sets.t2flow'
p100
(isync.SyncRegistry
SyncRegistry
p101
(dp102
g4
S'f11fdace5042941f696a7b47aa27b86e'
p103
sg6
F1342788338.941685
sg7
g100
sbs.